target datalayout = "e-m:e-p270:32:32-p271:32:32-p272:64:64-i64:64-i128:128-f80:128-n8:16:32:64-S128"
target triple = "x86_64-pc-linux-gnu"

%class.LogTagSet = type { ptr, i64, [5 x i32], [4 x i8], %class.LogOutputList, %class.LogDecorators, ptr }
%class.LogOutputList = type <{ [6 x ptr], i32, [4 x i8] }>
%class.LogDecorators = type { i32 }
%class.RepositoryIterator = type { ptr, i32, i32 }

@_ZL12_path_buffer = internal global [4097 x i8] zeroinitializer, align 16
@.str = private unnamed_addr constant [3 x i8] c"%s\00", align 1
@_ZL18chunk_file_jfr_ext = internal constant [5 x i8] c".jfr\00", align 1
@.str.4 = private unnamed_addr constant [50 x i8] c"Unable to malloc memory during jfr emergency dump\00", align 1
@_ZN16LogTagSetMappingILN6LogTag4typeE64ELS1_156ELS1_0ELS1_0ELS1_0ELS1_0EE7_tagsetE = linkonce_odr hidden global %class.LogTagSet zeroinitializer, comdat, align 8

; Function Attrs: mustprogress nounwind uwtable
define linkonce_odr hidden noundef zeroext i1 @_ZNK13LogOutputList8is_levelEN8LogLevel4typeE(ptr noundef nonnull align 8 dereferenceable(52) %0, i32 noundef %1) #1 comdat align 2 {
  %3 = alloca ptr, align 8
  %4 = alloca i32, align 4
  store ptr %0, ptr %3, align 8
  store i32 %1, ptr %4, align 4
  %5 = load ptr, ptr %3, align 8
  %6 = getelementptr inbounds %class.LogOutputList, ptr %5, i32 0, i32 0
  %7 = load i32, ptr %4, align 4
  %8 = zext i32 %7 to i64
  %9 = getelementptr inbounds [6 x ptr], ptr %6, i64 0, i64 %8
  %10 = load volatile ptr, ptr %9, align 8
  %11 = icmp ne ptr %10, null
  ret i1 %11
}

; Function Attrs: mustprogress nounwind uwtable
define linkonce_odr hidden noundef zeroext i1 @_ZNK9LogTagSet8is_levelEN8LogLevel4typeE(ptr noundef nonnull align 8 dereferenceable(112) %0, i32 noundef %1) #1 comdat align 2 {
  %3 = alloca ptr, align 8
  %4 = alloca i32, align 4
  store ptr %0, ptr %3, align 8
  store i32 %1, ptr %4, align 4
  %5 = load ptr, ptr %3, align 8
  %6 = getelementptr inbounds %class.LogTagSet, ptr %5, i32 0, i32 4
  %7 = load i32, ptr %4, align 4
  %8 = call noundef zeroext i1 @_ZNK13LogOutputList8is_levelEN8LogLevel4typeE(ptr noundef nonnull align 8 dereferenceable(52) %6, i32 noundef %7)
  ret i1 %8
}

; Function Attrs: mustprogress nounwind uwtable
define linkonce_odr hidden noundef nonnull align 8 dereferenceable(112) ptr @_ZN16LogTagSetMappingILN6LogTag4typeE64ELS1_156ELS1_0ELS1_0ELS1_0ELS1_0EE6tagsetEv() #1 comdat align 2 {
  ret ptr @_ZN16LogTagSetMappingILN6LogTag4typeE64ELS1_156ELS1_0ELS1_0ELS1_0ELS1_0EE7_tagsetE
}

; Function Attrs: mustprogress nounwind uwtable
define linkonce_odr hidden noundef zeroext i1 @_ZN7LogImplILN6LogTag4typeE64ELS1_156ELS1_0ELS1_0ELS1_0ELS1_0EE8is_levelEN8LogLevel4typeE(i32 noundef %0) #1 comdat align 2 {
  %2 = alloca i32, align 4
  store i32 %0, ptr %2, align 4
  %3 = call noundef nonnull align 8 dereferenceable(112) ptr @_ZN16LogTagSetMappingILN6LogTag4typeE64ELS1_156ELS1_0ELS1_0ELS1_0ELS1_0EE6tagsetEv()
  %4 = load i32, ptr %2, align 4
  %5 = call noundef zeroext i1 @_ZNK9LogTagSet8is_levelEN8LogLevel4typeE(ptr noundef nonnull align 8 dereferenceable(112) %3, i32 noundef %4)
  ret i1 %5
}

; Function Attrs: mustprogress nounwind uwtable
define internal noundef i64 @_ZL9file_sizei(i32 noundef %0) #1 {
  %2 = alloca i32, align 4
  %3 = alloca i64, align 8
  %4 = alloca i64, align 8
  store i32 %0, ptr %2, align 4
  %5 = load i32, ptr %2, align 4
  %6 = call noundef i64 @_ZN2os19current_file_offsetEi(i32 noundef %5)
  store i64 %6, ptr %3, align 8
  %7 = load i32, ptr %2, align 4
  %8 = call noundef i64 @_ZN2os5lseekEili(i32 noundef %7, i64 noundef 0, i32 noundef 2)
  store i64 %8, ptr %4, align 8
  %9 = load i32, ptr %2, align 4
  %10 = load i64, ptr %3, align 8
  %11 = call noundef i64 @_ZN2os19seek_to_file_offsetEil(i32 noundef %9, i64 noundef %10)
  %12 = load i64, ptr %4, align 8
  ret i64 %12
}

; Function Attrs: mustprogress nounwind uwtable
define internal noundef i32 @_ZL15open_exclusivlyPKc(ptr noundef %0) #1 {
  %2 = alloca ptr, align 8
  store ptr %0, ptr %2, align 8
  %3 = load ptr, ptr %2, align 8
  %4 = call noundef i32 @_ZN2os4openEPKcii(ptr noundef %3, i32 noundef 66, i32 noundef 384)
  ret i32 %4
}

; Function Attrs: mustprogress nounwind uwtable
define hidden noundef ptr @_ZNK18RepositoryIterator15fully_qualifiedEPKc(ptr noundef nonnull align 8 dereferenceable(16) %0, ptr noundef %1) #1 align 2 {
  %3 = alloca ptr, align 8
  %4 = alloca ptr, align 8
  %5 = alloca i32, align 4
  store ptr %0, ptr %3, align 8
  store ptr %1, ptr %4, align 8
  %6 = load ptr, ptr %3, align 8
  %7 = getelementptr inbounds %class.RepositoryIterator, ptr %6, i32 0, i32 1
  %8 = load i32, ptr %7, align 8
  %9 = sext i32 %8 to i64
  %10 = getelementptr inbounds i8, ptr @_ZL12_path_buffer, i64 %9
  %11 = getelementptr inbounds %class.RepositoryIterator, ptr %6, i32 0, i32 1
  %12 = load i32, ptr %11, align 8
  %13 = sext i32 %12 to i64
  %14 = sub i64 4097, %13
  %15 = load ptr, ptr %4, align 8
  %16 = call i32 (ptr, i64, ptr, ...) @jio_snprintf(ptr noundef %10, i64 noundef %14, ptr noundef @.str, ptr noundef %15)
  store i32 %16, ptr %5, align 4
  %17 = load i32, ptr %5, align 4
  %18 = icmp ne i32 %17, -1
  %19 = select i1 %18, ptr @_ZL12_path_buffer, ptr null
  ret ptr %19
}

; Function Attrs: mustprogress nounwind uwtable
define hidden noundef ptr @_ZNK18RepositoryIterator6filterEPKc(ptr noundef nonnull align 8 dereferenceable(16) %0, ptr noundef %1) #1 align 2 {
  %3 = alloca ptr, align 8
  %4 = alloca ptr, align 8
  %5 = alloca ptr, align 8
  %6 = alloca i64, align 8
  %7 = alloca ptr, align 8
  %8 = alloca i32, align 4
  %9 = alloca i64, align 8
  %10 = alloca ptr, align 8
  store ptr %0, ptr %4, align 8
  store ptr %1, ptr %5, align 8
  %11 = load ptr, ptr %4, align 8
  %12 = load ptr, ptr %5, align 8
  %13 = icmp eq ptr %12, null
  br i1 %13, label %14, label %15

14:                                               ; preds = %2
  store ptr null, ptr %3, align 8
  br label %66

15:                                               ; preds = %2
  %16 = load ptr, ptr %5, align 8
  %17 = call i64 @strlen(ptr noundef %16) #10
  store i64 %17, ptr %6, align 8
  %18 = load i64, ptr %6, align 8
  %19 = icmp ult i64 %18, 4
  br i1 %19, label %27, label %20

20:                                               ; preds = %15
  %21 = load ptr, ptr %5, align 8
  %22 = load i64, ptr %6, align 8
  %23 = sub i64 %22, 4
  %24 = getelementptr inbounds i8, ptr %21, i64 %23
  %25 = call i32 @strncmp(ptr noundef %24, ptr noundef @_ZL18chunk_file_jfr_ext, i64 noundef 4) #10
  %26 = icmp ne i32 %25, 0
  br i1 %26, label %27, label %28

27:                                               ; preds = %20, %15
  store ptr null, ptr %3, align 8
  br label %66

28:                                               ; preds = %20
  %29 = load ptr, ptr %5, align 8
  %30 = call noundef ptr @_ZNK18RepositoryIterator15fully_qualifiedEPKc(ptr noundef nonnull align 8 dereferenceable(16) %11, ptr noundef %29)
  store ptr %30, ptr %7, align 8
  %31 = load ptr, ptr %7, align 8
  %32 = icmp eq ptr %31, null
  br i1 %32, label %33, label %34

33:                                               ; preds = %28
  store ptr null, ptr %3, align 8
  br label %66

34:                                               ; preds = %28
  %35 = load ptr, ptr %7, align 8
  %36 = call noundef i32 @_ZL15open_exclusivlyPKc(ptr noundef %35)
  store i32 %36, ptr %8, align 4
  %37 = load i32, ptr %8, align 4
  %38 = icmp eq i32 -1, %37
  br i1 %38, label %39, label %40

39:                                               ; preds = %34
  store ptr null, ptr %3, align 8
  br label %66

40:                                               ; preds = %34
  %41 = load i32, ptr %8, align 4
  %42 = call noundef i64 @_ZL9file_sizei(i32 noundef %41)
  store i64 %42, ptr %9, align 8
  %43 = load i32, ptr %8, align 4
  %44 = call i32 @close(i32 noundef %43)
  %45 = load i64, ptr %9, align 8
  %46 = icmp sle i64 %45, 68
  br i1 %46, label %47, label %48

47:                                               ; preds = %40
  store ptr null, ptr %3, align 8
  br label %66

48:                                               ; preds = %40
  %49 = load i64, ptr %6, align 8
  %50 = add i64 %49, 1
  %51 = call noundef ptr @_ZN2os6mallocEm8MEMFLAGS(i64 noundef %50, i8 noundef zeroext 16)
  store ptr %51, ptr %10, align 8
  %52 = load ptr, ptr %10, align 8
  %53 = icmp eq ptr %52, null
  br i1 %53, label %54, label %59

54:                                               ; preds = %48
  %55 = call noundef zeroext i1 @_ZN7LogImplILN6LogTag4typeE64ELS1_156ELS1_0ELS1_0ELS1_0ELS1_0EE8is_levelEN8LogLevel4typeE(i32 noundef 5)
  br i1 %55, label %57, label %56

56:                                               ; preds = %54
  br label %58

57:                                               ; preds = %54
  call void (ptr, ...) @_ZN7LogImplILN6LogTag4typeE64ELS1_156ELS1_0ELS1_0ELS1_0ELS1_0EE5writeILN8LogLevel4typeE5EEEvPKcz(ptr noundef @.str.4)
  br label %58

58:                                               ; preds = %57, %56
  store ptr null, ptr %3, align 8
  br label %66

59:                                               ; preds = %48
  %60 = load ptr, ptr %10, align 8
  %61 = load ptr, ptr %5, align 8
  %62 = load i64, ptr %6, align 8
  %63 = add i64 %62, 1
  %64 = call ptr @strncpy(ptr noundef %60, ptr noundef %61, i64 noundef %63) #8
  %65 = load ptr, ptr %10, align 8
  store ptr %65, ptr %3, align 8
  br label %66

66:                                               ; preds = %59, %58, %47, %39, %33, %27, %14
  %67 = load ptr, ptr %3, align 8
  ret ptr %67
}