; Function Attrs: mustprogress nounwind uwtable
define hidden noundef ptr @_ZNK18RepositoryIterator6filterEPKc(ptr nocapture noundef nonnull readonly align 8 dereferenceable(16) %0, ptr noundef %1) local_unnamed_addr #0 align 2 {
  %3 = icmp eq ptr %1, null
  br i1 %3, label %36, label %4

4:                                                ; preds = %2
  %5 = tail call i64 @strlen(ptr noundef nonnull dereferenceable(1) %1) #17
  %6 = icmp ult i64 %5, 4
  br i1 %6, label %36, label %7

7:                                                ; preds = %4
  %8 = getelementptr i8, ptr %1, i64 %5
  %9 = getelementptr i8, ptr %8, i64 -4
  %10 = tail call i32 @strncmp(ptr noundef nonnull dereferenceable(1) %9, ptr noundef nonnull dereferenceable(5) @_ZL18chunk_file_jfr_ext, i64 noundef 4) #17
  %.not = icmp eq i32 %10, 0
  br i1 %.not, label %11, label %36

11:                                               ; preds = %7
  %12 = getelementptr inbounds i8, ptr %0, i64 8
  %13 = load i32, ptr %12, align 8
  %14 = sext i32 %13 to i64
  %15 = getelementptr inbounds i8, ptr @_ZL12_path_buffer, i64 %14
  %16 = sub nsw i64 4097, %14
  %17 = tail call i32 (ptr, i64, ptr, ...) @jio_snprintf(ptr noundef nonnull %15, i64 noundef %16, ptr noundef nonnull @.str, ptr noundef nonnull %1) #16
  %.not.i = icmp eq i32 %17, -1
  br i1 %.not.i, label %36, label %18

18:                                               ; preds = %11
  %19 = tail call noundef i32 @_ZN2os4openEPKcii(ptr noundef nonnull @_ZL12_path_buffer, i32 noundef 66, i32 noundef 384) #16
  %20 = icmp eq i32 %19, -1
  br i1 %20, label %36, label %21

21:                                               ; preds = %18
  %22 = tail call noundef i64 @_ZN2os19current_file_offsetEi(i32 noundef %19) #16
  %23 = tail call noundef i64 @_ZN2os5lseekEili(i32 noundef %19, i64 noundef 0, i32 noundef 2) #16
  %24 = tail call noundef i64 @_ZN2os19seek_to_file_offsetEil(i32 noundef %19, i64 noundef %22) #16
  %25 = tail call i32 @close(i32 noundef %19) #16
  %26 = icmp slt i64 %23, 69
  br i1 %26, label %36, label %27

27:                                               ; preds = %21
  %28 = add i64 %5, 1
  %29 = tail call noundef ptr @_ZN2os6mallocEm8MEMFLAGS(i64 noundef %28, i8 noundef zeroext 16) #16
  %30 = icmp eq ptr %29, null
  br i1 %30, label %31, label %34

31:                                               ; preds = %27
  %32 = load volatile ptr, ptr getelementptr inbounds (i8, ptr @_ZN16LogTagSetMappingILN6LogTag4typeE64ELS1_156ELS1_0ELS1_0ELS1_0ELS1_0EE7_tagsetE, i64 80), align 8
  %.not24 = icmp eq ptr %32, null
  br i1 %.not24, label %36, label %33

33:                                               ; preds = %31
  tail call void (ptr, ...) @_ZN7LogImplILN6LogTag4typeE64ELS1_156ELS1_0ELS1_0ELS1_0ELS1_0EE5writeILN8LogLevel4typeE5EEEvPKcz(ptr noundef nonnull @.str.4)
  br label %36

34:                                               ; preds = %27
  %35 = tail call ptr @strncpy(ptr noundef nonnull %29, ptr noundef nonnull %1, i64 noundef %28) #16
  br label %36

36:                                               ; preds = %33, %31, %21, %18, %11, %4, %7, %2, %34
  %.0 = phi ptr [ %29, %34 ], [ null, %2 ], [ null, %7 ], [ null, %4 ], [ null, %11 ], [ null, %18 ], [ null, %21 ], [ null, %31 ], [ null, %33 ]
  ret ptr %.0
}